ccollections
deque
p0
((lp1
ccopy_reg
_reconstructor
p2
(cmodules.entity.entity
PTTPackage
p3
c__builtin__
object
p4
Ntp5
Rp6
(dp7
S'crc'
p8
I82
sS'raw_data'
p9
(lp10
I26
aI9
aI120
aI0
aI7
aI0
aI0
aI0
aI135
aI186
aI38
aI15
aI15
aI117
aI11
aI13
aI10
aI0
aI23
aI1
aI1
aI104
aI169
aI109
aI172
aI169
aI91
aI84
aI242
aI44
aI233
aI208
aI201
aI134
aI173
aI208
aI221
aI105
aI219
aI232
aI70
aI143
aI55
aI48
aI37
aI188
aI35
aI104
aI142
aI182
aI93
aI127
aI82
aI0
asS'msgLength'
p11
I15
sS'pttIdNumber'
p12
I254196359
sS'sensorData'
p13
(lp14
I104
aI169
aI109
aI172
aI169
aI91
aI84
aI242
aI44
aI233
aI208
aI201
aI134
aI173
aI208
aI221
aI105
aI219
aI232
aI70
aI143
aI55
aI48
aI37
aI188
aI35
aI104
aI142
aI182
aI93
aI127
asS'pckgType'
p15
I26
sS'timeTag'
p16
(lp17
I117
aI11
aI13
aI10
aI0
aI23
aI1
aI1
asS'localCRC'
p18
I82
sS'decoderNumber'
p19
I9
sS'freqMeasure'
p20
I7
sS'typeStr'
p21
S'PTT'
p22
sS'ampRms'
p23
I120
sbag2
(g3
g4
Ntp24
Rp25
(dp26
g8
I82
sg9
(lp27
I26
aI9
aI121
aI0
aI7
aI0
aI0
aI0
aI135
aI186
aI38
aI15
aI15
aI117
aI11
aI13
aI10
aI0
aI24
aI1
aI1
aI104
aI169
aI109
aI172
aI169
aI91
aI84
aI242
aI44
aI233
aI208
aI201
aI134
aI173
aI208
aI221
aI105
aI219
aI232
aI70
aI143
aI55
aI48
aI37
aI188
aI35
aI104
aI142
aI182
aI93
aI127
aI82
aI0
asg11
I15
sg12
I254196359
sg13
(lp28
I104
aI169
aI109
aI172
aI169
aI91
aI84
aI242
aI44
aI233
aI208
aI201
aI134
aI173
aI208
aI221
aI105
aI219
aI232
aI70
aI143
aI55
aI48
aI37
aI188
aI35
aI104
aI142
aI182
aI93
aI127
asg15
I26
sg16
(lp29
I117
aI11
aI13
aI10
aI0
aI24
aI1
aI1
asg18
I82
sg19
I9
sg20
I7
sg21
g22
sg23
I121
sbag2
(g3
g4
Ntp30
Rp31
(dp32
g8
I82
sg9
(lp33
I26
aI9
aI121
aI0
aI7
aI0
aI0
aI0
aI135
aI186
aI38
aI15
aI15
aI117
aI11
aI13
aI10
aI0
aI26
aI1
aI1
aI104
aI169
aI109
aI172
aI169
aI91
aI84
aI242
aI44
aI233
aI208
aI201
aI134
aI173
aI208
aI221
aI105
aI219
aI232
aI70
aI143
aI55
aI48
aI37
aI188
aI35
aI104
aI142
aI182
aI93
aI127
aI82
aI0
asg11
I15
sg12
I254196359
sg13
(lp34
I104
aI169
aI109
aI172
aI169
aI91
aI84
aI242
aI44
aI233
aI208
aI201
aI134
aI173
aI208
aI221
aI105
aI219
aI232
aI70
aI143
aI55
aI48
aI37
aI188
aI35
aI104
aI142
aI182
aI93
aI127
asg15
I26
sg16
(lp35
I117
aI11
aI13
aI10
aI0
aI26
aI1
aI1
asg18
I82
sg19
I9
sg20
I7
sg21
g22
sg23
I121
sbag2
(g3
g4
Ntp36
Rp37
(dp38
g8
I82
sg9
(lp39
I26
aI9
aI120
aI0
aI7
aI0
aI0
aI0
aI135
aI186
aI38
aI15
aI15
aI117
aI11
aI13
aI10
aI0
aI28
aI1
aI1
aI104
aI169
aI109
aI172
aI169
aI91
aI84
aI242
aI44
aI233
aI208
aI201
aI134
aI173
aI208
aI221
aI105
aI219
aI232
aI70
aI143
aI55
aI48
aI37
aI188
aI35
aI104
aI142
aI182
aI93
aI127
aI82
aI0
asg11
I15
sg12
I254196359
sg13
(lp40
I104
aI169
aI109
aI172
aI169
aI91
aI84
aI242
aI44
aI233
aI208
aI201
aI134
aI173
aI208
aI221
aI105
aI219
aI232
aI70
aI143
aI55
aI48
aI37
aI188
aI35
aI104
aI142
aI182
aI93
aI127
asg15
I26
sg16
(lp41
I117
aI11
aI13
aI10
aI0
aI28
aI1
aI1
asg18
I82
sg19
I9
sg20
I7
sg21
g22
sg23
I120
sbag2
(g3
g4
Ntp42
Rp43
(dp44
g8
I82
sg9
(lp45
I26
aI9
aI121
aI0
aI7
aI0
aI0
aI0
aI135
aI186
aI38
aI15
aI15
aI117
aI11
aI13
aI10
aI0
aI31
aI1
aI1
aI104
aI169
aI109
aI172
aI169
aI91
aI84
aI242
aI44
aI233
aI208
aI201
aI134
aI173
aI208
aI221
aI105
aI219
aI232
aI70
aI143
aI55
aI48
aI37
aI188
aI35
aI104
aI142
aI182
aI93
aI127
aI82
aI0
asg11
I15
sg12
I254196359
sg13
(lp46
I104
aI169
aI109
aI172
aI169
aI91
aI84
aI242
aI44
aI233
aI208
aI201
aI134
aI173
aI208
aI221
aI105
aI219
aI232
aI70
aI143
aI55
aI48
aI37
aI188
aI35
aI104
aI142
aI182
aI93
aI127
asg15
I26
sg16
(lp47
I117
aI11
aI13
aI10
aI0
aI31
aI1
aI1
asg18
I82
sg19
I9
sg20
I7
sg21
g22
sg23
I121
sbag2
(g3
g4
Ntp48
Rp49
(dp50
g8
I82
sg9
(lp51
I26
aI9
aI120
aI0
aI7
aI0
aI0
aI0
aI135
aI186
aI38
aI15
aI15
aI117
aI11
aI13
aI10
aI0
aI33
aI1
aI1
aI104
aI169
aI109
aI172
aI169
aI91
aI84
aI242
aI44
aI233
aI208
aI201
aI134
aI173
aI208
aI221
aI105
aI219
aI232
aI70
aI143
aI55
aI48
aI37
aI188
aI35
aI104
aI142
aI182
aI93
aI127
aI82
aI0
asg11
I15
sg12
I254196359
sg13
(lp52
I104
aI169
aI109
aI172
aI169
aI91
aI84
aI242
aI44
aI233
aI208
aI201
aI134
aI173
aI208
aI221
aI105
aI219
aI232
aI70
aI143
aI55
aI48
aI37
aI188
aI35
aI104
aI142
aI182
aI93
aI127
asg15
I26
sg16
(lp53
I117
aI11
aI13
aI10
aI0
aI33
aI1
aI1
asg18
I82
sg19
I9
sg20
I7
sg21
g22
sg23
I120
sbag2
(g3
g4
Ntp54
Rp55
(dp56
g8
I82
sg9
(lp57
I26
aI9
aI121
aI0
aI7
aI0
aI0
aI0
aI135
aI186
aI38
aI15
aI15
aI117
aI11
aI13
aI10
aI0
aI34
aI1
aI1
aI104
aI169
aI109
aI172
aI169
aI91
aI84
aI242
aI44
aI233
aI208
aI201
aI134
aI173
aI208
aI221
aI105
aI219
aI232
aI70
aI143
aI55
aI48
aI37
aI188
aI35
aI104
aI142
aI182
aI93
aI127
aI82
aI0
asg11
I15
sg12
I254196359
sg13
(lp58
I104
aI169
aI109
aI172
aI169
aI91
aI84
aI242
aI44
aI233
aI208
aI201
aI134
aI173
aI208
aI221
aI105
aI219
aI232
aI70
aI143
aI55
aI48
aI37
aI188
aI35
aI104
aI142
aI182
aI93
aI127
asg15
I26
sg16
(lp59
I117
aI11
aI13
aI10
aI0
aI34
aI1
aI1
asg18
I82
sg19
I9
sg20
I7
sg21
g22
sg23
I121
sbag2
(g3
g4
Ntp60
Rp61
(dp62
g8
I82
sg9
(lp63
I26
aI9
aI121
aI0
aI7
aI0
aI0
aI0
aI135
aI186
aI38
aI15
aI15
aI117
aI11
aI13
aI10
aI0
aI36
aI1
aI1
aI104
aI169
aI109
aI172
aI169
aI91
aI84
aI242
aI44
aI233
aI208
aI201
aI134
aI173
aI208
aI221
aI105
aI219
aI232
aI70
aI143
aI55
aI48
aI37
aI188
aI35
aI104
aI142
aI182
aI93
aI127
aI82
aI0
asg11
I15
sg12
I254196359
sg13
(lp64
I104
aI169
aI109
aI172
aI169
aI91
aI84
aI242
aI44
aI233
aI208
aI201
aI134
aI173
aI208
aI221
aI105
aI219
aI232
aI70
aI143
aI55
aI48
aI37
aI188
aI35
aI104
aI142
aI182
aI93
aI127
asg15
I26
sg16
(lp65
I117
aI11
aI13
aI10
aI0
aI36
aI1
aI1
asg18
I82
sg19
I9
sg20
I7
sg21
g22
sg23
I121
sbag2
(g3
g4
Ntp66
Rp67
(dp68
g8
I82
sg9
(lp69
I26
aI9
aI120
aI0
aI7
aI0
aI0
aI0
aI135
aI186
aI38
aI15
aI15
aI117
aI11
aI13
aI10
aI0
aI37
aI1
aI1
aI104
aI169
aI109
aI172
aI169
aI91
aI84
aI242
aI44
aI233
aI208
aI201
aI134
aI173
aI208
aI221
aI105
aI219
aI232
aI70
aI143
aI55
aI48
aI37
aI188
aI35
aI104
aI142
aI182
aI93
aI127
aI82
aI0
asg11
I15
sg12
I254196359
sg13
(lp70
I104
aI169
aI109
aI172
aI169
aI91
aI84
aI242
aI44
aI233
aI208
aI201
aI134
aI173
aI208
aI221
aI105
aI219
aI232
aI70
aI143
aI55
aI48
aI37
aI188
aI35
aI104
aI142
aI182
aI93
aI127
asg15
I26
sg16
(lp71
I117
aI11
aI13
aI10
aI0
aI37
aI1
aI1
asg18
I82
sg19
I9
sg20
I7
sg21
g22
sg23
I120
sbag2
(g3
g4
Ntp72
Rp73
(dp74
g8
I82
sg9
(lp75
I26
aI9
aI121
aI0
aI7
aI0
aI0
aI0
aI135
aI186
aI38
aI15
aI15
aI117
aI11
aI13
aI10
aI0
aI39
aI1
aI1
aI104
aI169
aI109
aI172
aI169
aI91
aI84
aI242
aI44
aI233
aI208
aI201
aI134
aI173
aI208
aI221
aI105
aI219
aI232
aI70
aI143
aI55
aI48
aI37
aI188
aI35
aI104
aI142
aI182
aI93
aI127
aI82
aI0
asg11
I15
sg12
I254196359
sg13
(lp76
I104
aI169
aI109
aI172
aI169
aI91
aI84
aI242
aI44
aI233
aI208
aI201
aI134
aI173
aI208
aI221
aI105
aI219
aI232
aI70
aI143
aI55
aI48
aI37
aI188
aI35
aI104
aI142
aI182
aI93
aI127
asg15
I26
sg16
(lp77
I117
aI11
aI13
aI10
aI0
aI39
aI1
aI1
asg18
I82
sg19
I9
sg20
I7
sg21
g22
sg23
I121
sbag2
(g3
g4
Ntp78
Rp79
(dp80
g8
I82
sg9
(lp81
I26
aI9
aI121
aI0
aI7
aI0
aI0
aI0
aI135
aI186
aI38
aI15
aI15
aI117
aI11
aI13
aI10
aI0
aI40
aI1
aI1
aI104
aI169
aI109
aI172
aI169
aI91
aI84
aI242
aI44
aI233
aI208
aI201
aI134
aI173
aI208
aI221
aI105
aI219
aI232
aI70
aI143
aI55
aI48
aI37
aI188
aI35
aI104
aI142
aI182
aI93
aI127
aI82
aI0
asg11
I15
sg12
I254196359
sg13
(lp82
I104
aI169
aI109
aI172
aI169
aI91
aI84
aI242
aI44
aI233
aI208
aI201
aI134
aI173
aI208
aI221
aI105
aI219
aI232
aI70
aI143
aI55
aI48
aI37
aI188
aI35
aI104
aI142
aI182
aI93
aI127
asg15
I26
sg16
(lp83
I117
aI11
aI13
aI10
aI0
aI40
aI1
aI1
asg18
I82
sg19
I9
sg20
I7
sg21
g22
sg23
I121
sbatp84
Rp85
.